target datalayout = "e-m:e-p270:32:32-p271:32:32-p272:64:64-i64:64-i128:128-f80:128-n8:16:32:64-S128"
target triple = "x86_64-pc-linux-gnu"

%"class.ODDLParser::Value" = type { i32, i64, ptr, ptr }

; Function Attrs: mustprogress uwtable
define hidden void @_ZN10ODDLParser5Value6setRefEPNS_9ReferenceE(ptr noundef nonnull align 8 dereferenceable(32) %0, ptr noundef %1) #3 align 2 personality ptr @__gxx_personality_v0 {
  %3 = alloca ptr, align 8
  %4 = alloca ptr, align 8
  %5 = alloca i64, align 8
  %6 = alloca ptr, align 8
  %7 = alloca i32, align 4
  store ptr %0, ptr %3, align 8
  store ptr %1, ptr %4, align 8
  %8 = load ptr, ptr %3, align 8
  %9 = load ptr, ptr %4, align 8
  %10 = icmp ne ptr null, %9
  br i1 %10, label %11, label %36

11:                                               ; preds = %2
  call void @llvm.lifetime.start.p0(i64 8, ptr %5) #1
  %12 = load ptr, ptr %4, align 8
  %13 = call noundef i64 @_ZN10ODDLParser9Reference11sizeInBytesEv(ptr noundef nonnull align 8 dereferenceable(16) %12)
  store i64 %13, ptr %5, align 8
  %14 = load i64, ptr %5, align 8
  %15 = icmp ugt i64 %14, 0
  br i1 %15, label %16, label %35

16:                                               ; preds = %11
  %17 = getelementptr inbounds nuw %"class.ODDLParser::Value", ptr %8, i32 0, i32 2
  %18 = load ptr, ptr %17, align 8
  %19 = icmp ne ptr null, %18
  br i1 %19, label %20, label %26

20:                                               ; preds = %16
  %21 = getelementptr inbounds nuw %"class.ODDLParser::Value", ptr %8, i32 0, i32 2
  %22 = load ptr, ptr %21, align 8
  %23 = icmp eq ptr %22, null
  br i1 %23, label %25, label %24

24:                                               ; preds = %20
  call void @_ZdaPv(ptr noundef %22) #17
  br label %25

25:                                               ; preds = %24, %20
  br label %26

26:                                               ; preds = %25, %16
  %27 = call noalias noundef nonnull ptr @_Znwm(i64 noundef 16) #18
  %28 = load ptr, ptr %4, align 8
  invoke void @_ZN10ODDLParser9ReferenceC1ERKS0_(ptr noundef nonnull align 8 dereferenceable(16) %27, ptr noundef nonnull align 8 dereferenceable(16) %28)
          to label %29 unwind label %31

29:                                               ; preds = %26
  %30 = getelementptr inbounds nuw %"class.ODDLParser::Value", ptr %8, i32 0, i32 2
  store ptr %27, ptr %30, align 8
  br label %35

31:                                               ; preds = %26
  %32 = landingpad { ptr, i32 }
          cleanup
  %33 = extractvalue { ptr, i32 } %32, 0
  store ptr %33, ptr %6, align 8
  %34 = extractvalue { ptr, i32 } %32, 1
  store i32 %34, ptr %7, align 4
  call void @_ZdlPvm(ptr noundef %27, i64 noundef 16) #17
  call void @llvm.lifetime.end.p0(i64 8, ptr %5) #1
  br label %37

35:                                               ; preds = %29, %11
  call void @llvm.lifetime.end.p0(i64 8, ptr %5) #1
  br label %36

36:                                               ; preds = %35, %2
  ret void

37:                                               ; preds = %31
  %38 = load ptr, ptr %6, align 8
  %39 = load i32, ptr %7, align 4
  %40 = insertvalue { ptr, i32 } poison, ptr %38, 0
  %41 = insertvalue { ptr, i32 } %40, i32 %39, 1
  resume { ptr, i32 } %41
}