; Function Attrs: mustprogress uwtable
define hidden void @_ZN10ODDLParser5Value6setRefEPNS_9ReferenceE(ptr noundef nonnull align 8 captures(none) dereferenceable(32) %0, ptr noundef %1) local_unnamed_addr #12 align 2 personality ptr @__gxx_personality_v0 {
  %.not = icmp eq ptr %1, null
  br i1 %.not, label %14, label %3

3:                                                ; preds = %2
  %4 = tail call noundef i64 @_ZN10ODDLParser9Reference11sizeInBytesEv(ptr noundef nonnull align 8 dereferenceable(16) %1)
  %.not7 = icmp eq i64 %4, 0
  br i1 %.not7, label %14, label %5

5:                                                ; preds = %3
  %6 = getelementptr inbounds nuw i8, ptr %0, i64 16
  %7 = load ptr, ptr %6, align 8
  %.not8 = icmp eq ptr %7, null
  br i1 %.not8, label %9, label %8

8:                                                ; preds = %5
  tail call void @_ZdaPv(ptr noundef nonnull %7) #26
  br label %9

9:                                                ; preds = %8, %5
  %10 = tail call noalias noundef nonnull dereferenceable(16) ptr @_Znwm(i64 noundef 16) #27
  invoke void @_ZN10ODDLParser9ReferenceC1ERKS0_(ptr noundef nonnull align 8 dereferenceable(16) %10, ptr noundef nonnull align 8 dereferenceable(16) %1)
          to label %11 unwind label %12

11:                                               ; preds = %9
  store ptr %10, ptr %6, align 8
  br label %14

12:                                               ; preds = %9
  %13 = landingpad { ptr, i32 }
          cleanup
  tail call void @_ZdlPvm(ptr noundef nonnull %10, i64 noundef 16) #26
  resume { ptr, i32 } %13

14:                                               ; preds = %3, %11, %2
  ret void
}